target datalayout = "e-m:e-p270:32:32-p271:32:32-p272:64:64-i64:64-i128:128-f80:128-n8:16:32:64-S128"
target triple = "x86_64-pc-linux-gnu"

%"class.zxing::qrcode::FinderPattern" = type { %"class.zxing::ResultPoint.base", float, i32, float, i32, i32 }
%"class.zxing::ResultPoint.base" = type { %"class.zxing::Counted.base", float, float }
%"class.zxing::Counted.base" = type <{ ptr, i32 }>
%"class.zxing::Ref" = type { ptr }
%"class.zxing::Counted" = type <{ ptr, i32, [4 x i8] }>

@_ZN5zxing6qrcode13FinderPatternC1Efffi = hidden unnamed_addr alias void (ptr, float, float, float, i32), ptr @_ZN5zxing6qrcode13FinderPatternC2Efffi

; Function Attrs: mustprogress nounwind uwtable
define linkonce_odr hidden void @_ZN5zxing7Counted7releaseEv(ptr noundef nonnull align 8 dereferenceable(12) %0) #2 comdat align 2 {
  %2 = alloca ptr, align 8
  store ptr %0, ptr %2, align 8, !tbaa !27
  %3 = load ptr, ptr %2, align 8
  %4 = getelementptr inbounds nuw %"class.zxing::Counted", ptr %3, i32 0, i32 1
  %5 = load i32, ptr %4, align 8, !tbaa !29
  %6 = add i32 %5, -1
  store i32 %6, ptr %4, align 8, !tbaa !29
  %7 = getelementptr inbounds nuw %"class.zxing::Counted", ptr %3, i32 0, i32 1
  %8 = load i32, ptr %7, align 8, !tbaa !29
  %9 = icmp eq i32 %8, 0
  br i1 %9, label %10, label %18

10:                                               ; preds = %1
  %11 = getelementptr inbounds nuw %"class.zxing::Counted", ptr %3, i32 0, i32 1
  store i32 -559026175, ptr %11, align 8, !tbaa !29
  %12 = icmp eq ptr %3, null
  br i1 %12, label %17, label %13

13:                                               ; preds = %10
  %14 = load ptr, ptr %3, align 8, !tbaa !10
  %15 = getelementptr inbounds ptr, ptr %14, i64 1
  %16 = load ptr, ptr %15, align 8
  call void %16(ptr noundef nonnull align 8 dereferenceable(12) %3) #9
  br label %17

17:                                               ; preds = %13, %10
  br label %18

18:                                               ; preds = %17, %1
  ret void
}

; Function Attrs: mustprogress nounwind uwtable
define linkonce_odr hidden noundef ptr @_ZN5zxing7Counted6retainEv(ptr noundef nonnull align 8 dereferenceable(12) %0) #2 comdat align 2 {
  %2 = alloca ptr, align 8
  store ptr %0, ptr %2, align 8, !tbaa !27
  %3 = load ptr, ptr %2, align 8
  %4 = getelementptr inbounds nuw %"class.zxing::Counted", ptr %3, i32 0, i32 1
  %5 = load i32, ptr %4, align 8, !tbaa !29
  %6 = add i32 %5, 1
  store i32 %6, ptr %4, align 8, !tbaa !29
  ret ptr %3
}

; Function Attrs: mustprogress uwtable
define linkonce_odr hidden void @_ZN5zxing3RefINS_6qrcode13FinderPatternEE5resetEPS2_(ptr noundef nonnull align 8 dereferenceable(8) %0, ptr noundef %1) #0 comdat align 2 {
  %3 = alloca ptr, align 8
  %4 = alloca ptr, align 8
  store ptr %0, ptr %3, align 8, !tbaa !23
  store ptr %1, ptr %4, align 8, !tbaa !3
  %5 = load ptr, ptr %3, align 8
  %6 = load ptr, ptr %4, align 8, !tbaa !3
  %7 = icmp ne ptr %6, null
  br i1 %7, label %8, label %11

8:                                                ; preds = %2
  %9 = load ptr, ptr %4, align 8, !tbaa !3
  %10 = call noundef ptr @_ZN5zxing7Counted6retainEv(ptr noundef nonnull align 8 dereferenceable(12) %9)
  br label %11

11:                                               ; preds = %8, %2
  %12 = getelementptr inbounds nuw %"class.zxing::Ref", ptr %5, i32 0, i32 0
  %13 = load ptr, ptr %12, align 8, !tbaa !25
  %14 = icmp ne ptr %13, null
  br i1 %14, label %15, label %18

15:                                               ; preds = %11
  %16 = getelementptr inbounds nuw %"class.zxing::Ref", ptr %5, i32 0, i32 0
  %17 = load ptr, ptr %16, align 8, !tbaa !25
  call void @_ZN5zxing7Counted7releaseEv(ptr noundef nonnull align 8 dereferenceable(12) %17)
  br label %18

18:                                               ; preds = %15, %11
  %19 = load ptr, ptr %4, align 8, !tbaa !3
  %20 = getelementptr inbounds nuw %"class.zxing::Ref", ptr %5, i32 0, i32 0
  store ptr %19, ptr %20, align 8, !tbaa !25
  ret void
}

; Function Attrs: mustprogress uwtable
define linkonce_odr hidden void @_ZN5zxing3RefINS_6qrcode13FinderPatternEEC2EPS2_(ptr noundef nonnull align 8 dereferenceable(8) %0, ptr noundef %1) unnamed_addr #0 comdat align 2 {
  %3 = alloca ptr, align 8
  %4 = alloca ptr, align 8
  store ptr %0, ptr %3, align 8, !tbaa !23
  store ptr %1, ptr %4, align 8, !tbaa !3
  %5 = load ptr, ptr %3, align 8
  %6 = getelementptr inbounds nuw %"class.zxing::Ref", ptr %5, i32 0, i32 0
  store ptr null, ptr %6, align 8, !tbaa !25
  %7 = load ptr, ptr %4, align 8, !tbaa !3
  call void @_ZN5zxing3RefINS_6qrcode13FinderPatternEE5resetEPS2_(ptr noundef nonnull align 8 dereferenceable(8) %5, ptr noundef %7)
  ret void
}

; Function Attrs: mustprogress nounwind uwtable
define hidden noundef float @_ZNK5zxing6qrcode13FinderPattern22getEstimatedModuleSizeEv(ptr noundef nonnull align 8 dereferenceable(40) %0) #2 align 2 {
  %2 = alloca ptr, align 8
  store ptr %0, ptr %2, align 8, !tbaa !3
  %3 = load ptr, ptr %2, align 8
  %4 = getelementptr inbounds nuw %"class.zxing::qrcode::FinderPattern", ptr %3, i32 0, i32 1
  %5 = load float, ptr %4, align 4, !tbaa !12
  ret float %5
}

; Function Attrs: mustprogress uwtable
define hidden void @_ZNK5zxing6qrcode13FinderPattern15combineEstimateEfff(ptr dead_on_unwind noalias writable sret(%"class.zxing::Ref") align 8 %0, ptr noundef nonnull align 8 dereferenceable(40) %1, float noundef %2, float noundef %3, float noundef %4) #0 align 2 personality ptr @__gxx_personality_v0 {
  %6 = alloca ptr, align 8
  %7 = alloca ptr, align 8
  %8 = alloca float, align 4
  %9 = alloca float, align 4
  %10 = alloca float, align 4
  %11 = alloca i32, align 4
  %12 = alloca float, align 4
  %13 = alloca float, align 4
  %14 = alloca float, align 4
  %15 = alloca ptr, align 8
  %16 = alloca i32, align 4
  store ptr %0, ptr %6, align 8
  store ptr %1, ptr %7, align 8, !tbaa !3
  store float %2, ptr %8, align 4, !tbaa !8
  store float %3, ptr %9, align 4, !tbaa !8
  store float %4, ptr %10, align 4, !tbaa !8
  %17 = load ptr, ptr %7, align 8
  call void @llvm.lifetime.start.p0(i64 4, ptr %11) #9
  %18 = getelementptr inbounds nuw %"class.zxing::qrcode::FinderPattern", ptr %17, i32 0, i32 2
  %19 = load i32, ptr %18, align 8, !tbaa !18
  %20 = add nsw i32 %19, 1
  store i32 %20, ptr %11, align 4, !tbaa !22
  call void @llvm.lifetime.start.p0(i64 4, ptr %12) #9
  %21 = load ptr, ptr %17, align 8, !tbaa !10
  %22 = getelementptr inbounds ptr, ptr %21, i64 2
  %23 = load ptr, ptr %22, align 8
  %24 = call noundef float %23(ptr noundef nonnull align 8 dereferenceable(20) %17)
  store float %24, ptr %12, align 4, !tbaa !8
  call void @llvm.lifetime.start.p0(i64 4, ptr %13) #9
  %25 = load ptr, ptr %17, align 8, !tbaa !10
  %26 = getelementptr inbounds ptr, ptr %25, i64 3
  %27 = load ptr, ptr %26, align 8
  %28 = call noundef float %27(ptr noundef nonnull align 8 dereferenceable(20) %17)
  store float %28, ptr %13, align 4, !tbaa !8
  call void @llvm.lifetime.start.p0(i64 4, ptr %14) #9
  %29 = call noundef float @_ZNK5zxing6qrcode13FinderPattern22getEstimatedModuleSizeEv(ptr noundef nonnull align 8 dereferenceable(40) %17)
  store float %29, ptr %14, align 4, !tbaa !8
  %30 = load i32, ptr %11, align 4, !tbaa !22
  %31 = icmp sle i32 %30, 3
  br i1 %31, label %32, label %66

32:                                               ; preds = %5
  %33 = getelementptr inbounds nuw %"class.zxing::qrcode::FinderPattern", ptr %17, i32 0, i32 2
  %34 = load i32, ptr %33, align 8, !tbaa !18
  %35 = sitofp i32 %34 to float
  %36 = load ptr, ptr %17, align 8, !tbaa !10
  %37 = getelementptr inbounds ptr, ptr %36, i64 2
  %38 = load ptr, ptr %37, align 8
  %39 = call noundef float %38(ptr noundef nonnull align 8 dereferenceable(20) %17)
  %40 = load float, ptr %9, align 4, !tbaa !8
  %41 = call float @llvm.fmuladd.f32(float %35, float %39, float %40)
  %42 = load i32, ptr %11, align 4, !tbaa !22
  %43 = sitofp i32 %42 to float
  %44 = fdiv float %41, %43
  store float %44, ptr %12, align 4, !tbaa !8
  %45 = getelementptr inbounds nuw %"class.zxing::qrcode::FinderPattern", ptr %17, i32 0, i32 2
  %46 = load i32, ptr %45, align 8, !tbaa !18
  %47 = sitofp i32 %46 to float
  %48 = load ptr, ptr %17, align 8, !tbaa !10
  %49 = getelementptr inbounds ptr, ptr %48, i64 3
  %50 = load ptr, ptr %49, align 8
  %51 = call noundef float %50(ptr noundef nonnull align 8 dereferenceable(20) %17)
  %52 = load float, ptr %8, align 4, !tbaa !8
  %53 = call float @llvm.fmuladd.f32(float %47, float %51, float %52)
  %54 = load i32, ptr %11, align 4, !tbaa !22
  %55 = sitofp i32 %54 to float
  %56 = fdiv float %53, %55
  store float %56, ptr %13, align 4, !tbaa !8
  %57 = getelementptr inbounds nuw %"class.zxing::qrcode::FinderPattern", ptr %17, i32 0, i32 2
  %58 = load i32, ptr %57, align 8, !tbaa !18
  %59 = sitofp i32 %58 to float
  %60 = call noundef float @_ZNK5zxing6qrcode13FinderPattern22getEstimatedModuleSizeEv(ptr noundef nonnull align 8 dereferenceable(40) %17)
  %61 = load float, ptr %10, align 4, !tbaa !8
  %62 = call float @llvm.fmuladd.f32(float %59, float %60, float %61)
  %63 = load i32, ptr %11, align 4, !tbaa !22
  %64 = sitofp i32 %63 to float
  %65 = fdiv float %62, %64
  store float %65, ptr %14, align 4, !tbaa !8
  br label %66

66:                                               ; preds = %32, %5
  %67 = call noalias noundef nonnull ptr @_Znwm(i64 noundef 40) #10
  %68 = load float, ptr %12, align 4, !tbaa !8
  %69 = load float, ptr %13, align 4, !tbaa !8
  %70 = load float, ptr %14, align 4, !tbaa !8
  %71 = load i32, ptr %11, align 4, !tbaa !22
  invoke void @_ZN5zxing6qrcode13FinderPatternC1Efffi(ptr noundef nonnull align 8 dereferenceable(40) %67, float noundef %68, float noundef %69, float noundef %70, i32 noundef %71)
          to label %72 unwind label %73

72:                                               ; preds = %66
  call void @_ZN5zxing3RefINS_6qrcode13FinderPatternEEC2EPS2_(ptr noundef nonnull align 8 dereferenceable(8) %0, ptr noundef %67)
  call void @llvm.lifetime.end.p0(i64 4, ptr %14) #9
  call void @llvm.lifetime.end.p0(i64 4, ptr %13) #9
  call void @llvm.lifetime.end.p0(i64 4, ptr %12) #9
  call void @llvm.lifetime.end.p0(i64 4, ptr %11) #9
  ret void

73:                                               ; preds = %66
  %74 = landingpad { ptr, i32 }
          cleanup
  %75 = extractvalue { ptr, i32 } %74, 0
  store ptr %75, ptr %15, align 8
  %76 = extractvalue { ptr, i32 } %74, 1
  store i32 %76, ptr %16, align 4
  call void @_ZdlPv(ptr noundef %67) #11
  call void @llvm.lifetime.end.p0(i64 4, ptr %14) #9
  call void @llvm.lifetime.end.p0(i64 4, ptr %13) #9
  call void @llvm.lifetime.end.p0(i64 4, ptr %12) #9
  call void @llvm.lifetime.end.p0(i64 4, ptr %11) #9
  br label %77

77:                                               ; preds = %73
  %78 = load ptr, ptr %15, align 8
  %79 = load i32, ptr %16, align 4
  %80 = insertvalue { ptr, i32 } poison, ptr %78, 0
  %81 = insertvalue { ptr, i32 } %80, i32 %79, 1
  resume { ptr, i32 } %81
}