; Function Attrs: mustprogress uwtable
define hidden void @_ZNK5zxing6qrcode13FinderPattern15combineEstimateEfff(ptr dead_on_unwind noalias writable writeonly sret(%"class.zxing::Ref") align 8 captures(none) %0, ptr noundef nonnull align 8 dereferenceable(40) %1, float noundef %2, float noundef %3, float noundef %4) local_unnamed_addr #0 align 2 personality ptr @__gxx_personality_v0 {
  %6 = getelementptr inbounds nuw i8, ptr %1, i64 24
  %7 = load i32, ptr %6, align 8, !tbaa !14
  %8 = add nsw i32 %7, 1
  %9 = load ptr, ptr %1, align 8, !tbaa !3
  %10 = getelementptr inbounds nuw i8, ptr %9, i64 16
  %11 = load ptr, ptr %10, align 8
  %12 = tail call noundef float %11(ptr noundef nonnull align 8 dereferenceable(20) %1)
  %13 = load ptr, ptr %1, align 8, !tbaa !3
  %14 = getelementptr inbounds nuw i8, ptr %13, i64 24
  %15 = load ptr, ptr %14, align 8
  %16 = tail call noundef float %15(ptr noundef nonnull align 8 dereferenceable(20) %1)
  %17 = getelementptr inbounds nuw i8, ptr %1, i64 20
  %18 = load float, ptr %17, align 4, !tbaa !6
  %19 = icmp slt i32 %7, 3
  br i1 %19, label %20, label %43

20:                                               ; preds = %5
  %21 = load i32, ptr %6, align 8, !tbaa !14
  %22 = sitofp i32 %21 to float
  %23 = load ptr, ptr %1, align 8, !tbaa !3
  %24 = getelementptr inbounds nuw i8, ptr %23, i64 16
  %25 = load ptr, ptr %24, align 8
  %26 = tail call noundef float %25(ptr noundef nonnull align 8 dereferenceable(20) %1)
  %27 = tail call float @llvm.fmuladd.f32(float %22, float %26, float %3)
  %28 = sitofp i32 %8 to float
  %29 = fdiv float %27, %28
  %30 = load i32, ptr %6, align 8, !tbaa !14
  %31 = sitofp i32 %30 to float
  %32 = load ptr, ptr %1, align 8, !tbaa !3
  %33 = getelementptr inbounds nuw i8, ptr %32, i64 24
  %34 = load ptr, ptr %33, align 8
  %35 = tail call noundef float %34(ptr noundef nonnull align 8 dereferenceable(20) %1)
  %36 = tail call float @llvm.fmuladd.f32(float %31, float %35, float %2)
  %37 = fdiv float %36, %28
  %38 = load i32, ptr %6, align 8, !tbaa !14
  %39 = sitofp i32 %38 to float
  %40 = load float, ptr %17, align 4, !tbaa !6
  %41 = tail call float @llvm.fmuladd.f32(float %39, float %40, float %4)
  %42 = fdiv float %41, %28
  br label %43

43:                                               ; preds = %20, %5
  %.014 = phi float [ %42, %20 ], [ %18, %5 ]
  %.013 = phi float [ %37, %20 ], [ %16, %5 ]
  %.0 = phi float [ %29, %20 ], [ %12, %5 ]
  %44 = tail call noalias noundef nonnull dereferenceable(40) ptr @_Znwm(i64 noundef 40) #10
  invoke void @_ZN5zxing11ResultPointC2Eff(ptr noundef nonnull align 8 dereferenceable(40) %44, float noundef %.0, float noundef %.013)
          to label %45 unwind label %54

45:                                               ; preds = %43
  store ptr getelementptr inbounds nuw inrange(-16, 48) (i8, ptr @_ZTVN5zxing6qrcode13FinderPatternE, i64 16), ptr %44, align 8, !tbaa !3
  %46 = getelementptr inbounds nuw i8, ptr %44, i64 20
  store float %.014, ptr %46, align 4, !tbaa !6
  %47 = getelementptr inbounds nuw i8, ptr %44, i64 24
  store i32 %8, ptr %47, align 8, !tbaa !14
  %48 = getelementptr inbounds nuw i8, ptr %44, i64 32
  store i32 0, ptr %48, align 8, !tbaa !15
  %49 = getelementptr inbounds nuw i8, ptr %44, i64 36
  store i32 3, ptr %49, align 4, !tbaa !16
  %50 = getelementptr inbounds nuw i8, ptr %44, i64 28
  store float -1.000000e+00, ptr %50, align 4, !tbaa !17
  %51 = getelementptr inbounds nuw i8, ptr %44, i64 8
  %52 = load i32, ptr %51, align 8, !tbaa !18
  %53 = add i32 %52, 1
  store i32 %53, ptr %51, align 8, !tbaa !18
  store ptr %44, ptr %0, align 8, !tbaa !19
  ret void

54:                                               ; preds = %43
  %55 = landingpad { ptr, i32 }
          cleanup
  tail call void @_ZdlPv(ptr noundef nonnull %44) #11
  resume { ptr, i32 } %55
}